; Function Attrs: nofree norecurse nosync nounwind sspstrong memory(argmem: read) uwtable
define internal i32 @mbc_to_code(ptr noundef readonly captures(address) %0, ptr noundef readnone captures(address) %1, ptr readnone captures(none) %2) #3 {
  %4 = getelementptr inbounds nuw i8, ptr %0, i64 1
  %5 = load i8, ptr %0, align 1, !tbaa !6
  %6 = zext i8 %5 to i64
  %7 = getelementptr inbounds nuw [256 x i8], ptr @trans, i64 0, i64 %6
  %8 = load i8, ptr %7, align 1, !tbaa !6
  %9 = sext i8 %8 to i64
  %10 = icmp slt i8 %8, 0
  br i1 %10, label %11, label %13

11:                                               ; preds = %3
  %12 = icmp eq i8 %8, -1
  br i1 %12, label %mbc_enc_len.exit.thread, label %mbc_enc_len.exit.thread27

13:                                               ; preds = %3
  %14 = icmp eq ptr %4, %1
  br i1 %14, label %mbc_enc_len.exit, label %15

15:                                               ; preds = %13
  %16 = getelementptr inbounds nuw i8, ptr %0, i64 2
  %17 = load i8, ptr %4, align 1, !tbaa !6
  %18 = zext i8 %17 to i64
  %19 = getelementptr inbounds nuw [3 x [256 x i8]], ptr @trans, i64 0, i64 %9, i64 %18
  %20 = load i8, ptr %19, align 1, !tbaa !6
  %21 = sext i8 %20 to i64
  %22 = icmp slt i8 %20, 0
  br i1 %22, label %23, label %26

23:                                               ; preds = %15
  %24 = icmp eq i8 %20, -1
  %25 = select i1 %24, i32 2, i32 -1
  br label %mbc_enc_len.exit.thread27

26:                                               ; preds = %15
  %27 = icmp eq ptr %16, %1
  br i1 %27, label %mbc_enc_len.exit, label %28

28:                                               ; preds = %26
  %29 = load i8, ptr %16, align 1, !tbaa !6
  %30 = zext i8 %29 to i64
  %31 = getelementptr inbounds nuw [3 x [256 x i8]], ptr @trans, i64 0, i64 %21, i64 %30
  %32 = load i8, ptr %31, align 1, !tbaa !6
  %33 = icmp eq i8 %32, -1
  %34 = select i1 %33, i32 3, i32 -1
  br label %mbc_enc_len.exit.thread27

mbc_enc_len.exit.thread:                          ; preds = %11
  %35 = zext i8 %5 to i32
  br label %.loopexit

mbc_enc_len.exit.thread27:                        ; preds = %11, %23, %28
  %.0.i.ph = phi i32 [ %34, %28 ], [ %25, %23 ], [ -1, %11 ]
  %36 = zext i8 %5 to i32
  br label %.preheader

mbc_enc_len.exit:                                 ; preds = %26, %13
  %.sink = phi i32 [ 0, %13 ], [ 1, %26 ]
  %37 = getelementptr inbounds nuw [256 x i32], ptr @EncLen_EUCJP, i64 0, i64 %6
  %38 = load i32, ptr %37, align 4, !tbaa !9
  %39 = sub nsw i32 %.sink, %38
  %40 = zext i8 %5 to i32
  %41 = icmp eq i32 %39, 1
  br i1 %41, label %.loopexit, label %.preheader

.preheader:                                       ; preds = %mbc_enc_len.exit.thread27, %mbc_enc_len.exit
  %42 = phi i32 [ %36, %mbc_enc_len.exit.thread27 ], [ %40, %mbc_enc_len.exit ]
  %.0.i29 = phi i32 [ %.0.i.ph, %mbc_enc_len.exit.thread27 ], [ %39, %mbc_enc_len.exit ]
  %43 = icmp sgt i32 %.0.i29, 1
  %.not22 = icmp ult ptr %4, %1
  %or.cond23 = select i1 %43, i1 %.not22, i1 false
  br i1 %or.cond23, label %.lr.ph, label %.loopexit

.lr.ph:                                           ; preds = %.preheader, %.lr.ph
  %.01826 = phi ptr [ %.018, %.lr.ph ], [ %4, %.preheader ]
  %.025 = phi i32 [ %47, %.lr.ph ], [ %42, %.preheader ]
  %.01724 = phi i32 [ %48, %.lr.ph ], [ 1, %.preheader ]
  %44 = load i8, ptr %.01826, align 1, !tbaa !6
  %45 = zext i8 %44 to i32
  %46 = shl i32 %.025, 8
  %47 = or disjoint i32 %46, %45
  %48 = add nuw nsw i32 %.01724, 1
  %.018 = getelementptr inbounds nuw i8, ptr %.01826, i64 1
  %49 = icmp slt i32 %48, %.0.i29
  %.not = icmp ult ptr %.018, %1
  %or.cond = select i1 %49, i1 %.not, i1 false
  br i1 %or.cond, label %.lr.ph, label %.loopexit, !llvm.loop !11

.loopexit:                                        ; preds = %.lr.ph, %.preheader, %mbc_enc_len.exit.thread, %mbc_enc_len.exit
  %.016 = phi i32 [ %40, %mbc_enc_len.exit ], [ %35, %mbc_enc_len.exit.thread ], [ %42, %.preheader ], [ %47, %.lr.ph ]
  ret i32 %.016
}